target datalayout = "e-m:e-p270:32:32-p271:32:32-p272:64:64-i64:64-i128:128-f80:128-n8:16:32:64-S128"
target triple = "x86_64-pc-linux-gnu"

%struct.mp_cur = type { ptr, i64, i32 }

@.str.8 = private unnamed_addr constant [61 x i8] c"Invalid request to unpack with offset of %d and limit of %d.\00", align 1
@.str.9 = private unnamed_addr constant [46 x i8] c"Start offset %d greater than input length %d.\00", align 1
@.str.10 = private unnamed_addr constant [24 x i8] c"Missing bytes in input.\00", align 1
@.str.11 = private unnamed_addr constant [26 x i8] c"Bad data format in input.\00", align 1
@.str.12 = private unnamed_addr constant [27 x i8] c"in function mp_unpack_full\00", align 1

; Function Attrs: nounwind uwtable
define dso_local void @mp_cur_init(ptr noundef %0, ptr noundef %1, i64 noundef %2) #0 {
  %4 = alloca ptr, align 8
  %5 = alloca ptr, align 8
  %6 = alloca i64, align 8
  store ptr %0, ptr %4, align 8, !tbaa !25
  store ptr %1, ptr %5, align 8, !tbaa !10
  store i64 %2, ptr %6, align 8, !tbaa !8
  %7 = load ptr, ptr %5, align 8, !tbaa !10
  %8 = load ptr, ptr %4, align 8, !tbaa !25
  %9 = getelementptr inbounds nuw %struct.mp_cur, ptr %8, i32 0, i32 0
  store ptr %7, ptr %9, align 8, !tbaa !27
  %10 = load i64, ptr %6, align 8, !tbaa !8
  %11 = load ptr, ptr %4, align 8, !tbaa !25
  %12 = getelementptr inbounds nuw %struct.mp_cur, ptr %11, i32 0, i32 1
  store i64 %10, ptr %12, align 8, !tbaa !29
  %13 = load ptr, ptr %4, align 8, !tbaa !25
  %14 = getelementptr inbounds nuw %struct.mp_cur, ptr %13, i32 0, i32 2
  store i32 0, ptr %14, align 8, !tbaa !30
  ret void
}

; Function Attrs: nounwind uwtable
define dso_local i32 @mp_unpack_full(ptr noundef %0, i64 noundef %1, i64 noundef %2) #0 {
  %4 = alloca i32, align 4
  %5 = alloca ptr, align 8
  %6 = alloca i64, align 8
  %7 = alloca i64, align 8
  %8 = alloca i64, align 8
  %9 = alloca ptr, align 8
  %10 = alloca %struct.mp_cur, align 8
  %11 = alloca i32, align 4
  %12 = alloca i32, align 4
  %13 = alloca i32, align 4
  %14 = alloca i64, align 8
  store ptr %0, ptr %5, align 8, !tbaa !17
  store i64 %1, ptr %6, align 8, !tbaa !8
  store i64 %2, ptr %7, align 8, !tbaa !8
  call void @llvm.lifetime.start.p0(i64 8, ptr %8) #6
  call void @llvm.lifetime.start.p0(i64 8, ptr %9) #6
  call void @llvm.lifetime.start.p0(i64 24, ptr %10) #6
  call void @llvm.lifetime.start.p0(i64 4, ptr %11) #6
  call void @llvm.lifetime.start.p0(i64 4, ptr %12) #6
  %15 = load i64, ptr %6, align 8, !tbaa !8
  %16 = icmp ne i64 %15, 0
  br i1 %16, label %21, label %17

17:                                               ; preds = %3
  %18 = load i64, ptr %7, align 8, !tbaa !8
  %19 = icmp ne i64 %18, 0
  %20 = xor i1 %19, true
  br label %21

21:                                               ; preds = %17, %3
  %22 = phi i1 [ false, %3 ], [ %20, %17 ]
  %23 = zext i1 %22 to i32
  store i32 %23, ptr %12, align 4, !tbaa !12
  %24 = load ptr, ptr %5, align 8, !tbaa !17
  %25 = call ptr @luaL_checklstring(ptr noundef %24, i32 noundef 1, ptr noundef %8)
  store ptr %25, ptr %9, align 8, !tbaa !10
  %26 = load i64, ptr %7, align 8, !tbaa !8
  %27 = icmp slt i64 %26, 0
  br i1 %27, label %31, label %28

28:                                               ; preds = %21
  %29 = load i64, ptr %6, align 8, !tbaa !8
  %30 = icmp slt i64 %29, 0
  br i1 %30, label %31, label %38

31:                                               ; preds = %28, %21
  %32 = load ptr, ptr %5, align 8, !tbaa !17
  %33 = load i64, ptr %7, align 8, !tbaa !8
  %34 = trunc i64 %33 to i32
  %35 = load i64, ptr %8, align 8, !tbaa !8
  %36 = trunc i64 %35 to i32
  %37 = call i32 (ptr, ptr, ...) @luaL_error(ptr noundef %32, ptr noundef @.str.8, i32 noundef %34, i32 noundef %36)
  store i32 %37, ptr %4, align 4
  store i32 1, ptr %13, align 4
  br label %119

38:                                               ; preds = %28
  %39 = load i64, ptr %7, align 8, !tbaa !8
  %40 = load i64, ptr %8, align 8, !tbaa !8
  %41 = icmp ugt i64 %39, %40
  br i1 %41, label %42, label %49

42:                                               ; preds = %38
  %43 = load ptr, ptr %5, align 8, !tbaa !17
  %44 = load i64, ptr %7, align 8, !tbaa !8
  %45 = trunc i64 %44 to i32
  %46 = load i64, ptr %8, align 8, !tbaa !8
  %47 = trunc i64 %46 to i32
  %48 = call i32 (ptr, ptr, ...) @luaL_error(ptr noundef %43, ptr noundef @.str.9, i32 noundef %45, i32 noundef %47)
  store i32 %48, ptr %4, align 4
  store i32 1, ptr %13, align 4
  br label %119

49:                                               ; preds = %38
  br label %50

50:                                               ; preds = %49
  %51 = load i32, ptr %12, align 4, !tbaa !12
  %52 = icmp ne i32 %51, 0
  br i1 %52, label %53, label %54

53:                                               ; preds = %50
  store i64 2147483647, ptr %6, align 8, !tbaa !8
  br label %54

54:                                               ; preds = %53, %50
  %55 = load ptr, ptr %9, align 8, !tbaa !10
  %56 = load i64, ptr %7, align 8, !tbaa !8
  %57 = getelementptr inbounds i8, ptr %55, i64 %56
  %58 = load i64, ptr %8, align 8, !tbaa !8
  %59 = load i64, ptr %7, align 8, !tbaa !8
  %60 = sub i64 %58, %59
  call void @mp_cur_init(ptr noundef %10, ptr noundef %57, i64 noundef %60)
  store i32 0, ptr %11, align 4, !tbaa !12
  br label %61

61:                                               ; preds = %89, %54
  %62 = getelementptr inbounds nuw %struct.mp_cur, ptr %10, i32 0, i32 1
  %63 = load i64, ptr %62, align 8, !tbaa !29
  %64 = icmp ugt i64 %63, 0
  br i1 %64, label %65, label %70

65:                                               ; preds = %61
  %66 = load i32, ptr %11, align 4, !tbaa !12
  %67 = sext i32 %66 to i64
  %68 = load i64, ptr %6, align 8, !tbaa !8
  %69 = icmp slt i64 %67, %68
  br label %70

70:                                               ; preds = %65, %61
  %71 = phi i1 [ false, %61 ], [ %69, %65 ]
  br i1 %71, label %72, label %92

72:                                               ; preds = %70
  %73 = load ptr, ptr %5, align 8, !tbaa !17
  call void @mp_decode_to_lua_type(ptr noundef %73, ptr noundef %10)
  %74 = getelementptr inbounds nuw %struct.mp_cur, ptr %10, i32 0, i32 2
  %75 = load i32, ptr %74, align 8, !tbaa !30
  %76 = icmp eq i32 %75, 1
  br i1 %76, label %77, label %80

77:                                               ; preds = %72
  %78 = load ptr, ptr %5, align 8, !tbaa !17
  %79 = call i32 (ptr, ptr, ...) @luaL_error(ptr noundef %78, ptr noundef @.str.10)
  store i32 %79, ptr %4, align 4
  store i32 1, ptr %13, align 4
  br label %119

80:                                               ; preds = %72
  %81 = getelementptr inbounds nuw %struct.mp_cur, ptr %10, i32 0, i32 2
  %82 = load i32, ptr %81, align 8, !tbaa !30
  %83 = icmp eq i32 %82, 2
  br i1 %83, label %84, label %87

84:                                               ; preds = %80
  %85 = load ptr, ptr %5, align 8, !tbaa !17
  %86 = call i32 (ptr, ptr, ...) @luaL_error(ptr noundef %85, ptr noundef @.str.11)
  store i32 %86, ptr %4, align 4
  store i32 1, ptr %13, align 4
  br label %119

87:                                               ; preds = %80
  br label %88

88:                                               ; preds = %87
  br label %89

89:                                               ; preds = %88
  %90 = load i32, ptr %11, align 4, !tbaa !12
  %91 = add nsw i32 %90, 1
  store i32 %91, ptr %11, align 4, !tbaa !12
  br label %61, !llvm.loop !42

92:                                               ; preds = %70
  %93 = load i32, ptr %12, align 4, !tbaa !12
  %94 = icmp ne i32 %93, 0
  br i1 %94, label %117, label %95

95:                                               ; preds = %92
  call void @llvm.lifetime.start.p0(i64 8, ptr %14) #6
  %96 = load i64, ptr %8, align 8, !tbaa !8
  %97 = getelementptr inbounds nuw %struct.mp_cur, ptr %10, i32 0, i32 1
  %98 = load i64, ptr %97, align 8, !tbaa !29
  %99 = sub i64 %96, %98
  store i64 %99, ptr %14, align 8, !tbaa !8
  %100 = load i64, ptr %14, align 8, !tbaa !8
  %101 = icmp ugt i64 %100, 9223372036854775807
  br i1 %101, label %102, label %103

102:                                              ; preds = %95
  call void @abort() #7
  unreachable

103:                                              ; preds = %95
  %104 = load ptr, ptr %5, align 8, !tbaa !17
  call void @luaL_checkstack(ptr noundef %104, i32 noundef 1, ptr noundef @.str.12)
  %105 = load ptr, ptr %5, align 8, !tbaa !17
  %106 = getelementptr inbounds nuw %struct.mp_cur, ptr %10, i32 0, i32 1
  %107 = load i64, ptr %106, align 8, !tbaa !29
  %108 = icmp eq i64 %107, 0
  br i1 %108, label %109, label %110

109:                                              ; preds = %103
  br label %112

110:                                              ; preds = %103
  %111 = load i64, ptr %14, align 8, !tbaa !8
  br label %112

112:                                              ; preds = %110, %109
  %113 = phi i64 [ -1, %109 ], [ %111, %110 ]
  call void @lua_pushinteger(ptr noundef %105, i64 noundef %113)
  %114 = load ptr, ptr %5, align 8, !tbaa !17
  call void @lua_insert(ptr noundef %114, i32 noundef 2)
  %115 = load i32, ptr %11, align 4, !tbaa !12
  %116 = add nsw i32 %115, 1
  store i32 %116, ptr %11, align 4, !tbaa !12
  call void @llvm.lifetime.end.p0(i64 8, ptr %14) #6
  br label %117

117:                                              ; preds = %112, %92
  %118 = load i32, ptr %11, align 4, !tbaa !12
  store i32 %118, ptr %4, align 4
  store i32 1, ptr %13, align 4
  br label %119

119:                                              ; preds = %117, %84, %77, %42, %31
  call void @llvm.lifetime.end.p0(i64 4, ptr %12) #6
  call void @llvm.lifetime.end.p0(i64 4, ptr %11) #6
  call void @llvm.lifetime.end.p0(i64 24, ptr %10) #6
  call void @llvm.lifetime.end.p0(i64 8, ptr %9) #6
  call void @llvm.lifetime.end.p0(i64 8, ptr %8) #6
  %120 = load i32, ptr %4, align 4
  ret i32 %120
}