; Function Attrs: nounwind uwtable
define dso_local i32 @mp_unpack_full(ptr noundef %0, i64 noundef %1, i64 noundef %2) local_unnamed_addr #2 {
  %4 = alloca i64, align 8
  %5 = alloca %struct.mp_cur, align 8
  call void @llvm.lifetime.start.p0(i64 8, ptr nonnull %4) #10
  call void @llvm.lifetime.start.p0(i64 24, ptr nonnull %5) #10
  %6 = or i64 %2, %1
  %7 = icmp eq i64 %6, 0
  %8 = call ptr @luaL_checklstring(ptr noundef %0, i32 noundef 1, ptr noundef nonnull %4) #10
  %or.cond.not = icmp sgt i64 %6, -1
  br i1 %or.cond.not, label %14, label %9

9:                                                ; preds = %3
  %10 = trunc i64 %2 to i32
  %11 = load i64, ptr %4, align 8, !tbaa !22
  %12 = trunc i64 %11 to i32
  %13 = call i32 (ptr, ptr, ...) @luaL_error(ptr noundef %0, ptr noundef nonnull @.str.8, i32 noundef %10, i32 noundef %12) #10
  br label %50

14:                                               ; preds = %3
  %15 = load i64, ptr %4, align 8, !tbaa !22
  %16 = icmp ugt i64 %2, %15
  br i1 %16, label %17, label %21

17:                                               ; preds = %14
  %18 = trunc i64 %2 to i32
  %19 = trunc i64 %15 to i32
  %20 = call i32 (ptr, ptr, ...) @luaL_error(ptr noundef %0, ptr noundef nonnull @.str.9, i32 noundef %18, i32 noundef %19) #10
  br label %50

21:                                               ; preds = %14
  %spec.select = select i1 %7, i64 2147483647, i64 %1
  %22 = getelementptr inbounds nuw i8, ptr %8, i64 %2
  %23 = sub nuw i64 %15, %2
  store ptr %22, ptr %5, align 8, !tbaa !17
  %24 = getelementptr inbounds nuw i8, ptr %5, i64 8
  store i64 %23, ptr %24, align 8, !tbaa !20
  %25 = getelementptr inbounds nuw i8, ptr %5, i64 16
  store i32 0, ptr %25, align 8, !tbaa !21
  %26 = icmp ne i64 %23, 0
  %27 = icmp sgt i64 %spec.select, 0
  %28 = and i1 %26, %27
  br i1 %28, label %.lr.ph, label %._crit_edge

.lr.ph:                                           ; preds = %21, %34
  %indvars.iv = phi i64 [ %indvars.iv.next, %34 ], [ 0, %21 ]
  call void @mp_decode_to_lua_type(ptr noundef %0, ptr noundef nonnull %5)
  %29 = load i32, ptr %25, align 8, !tbaa !21
  switch i32 %29, label %34 [
    i32 1, label %30
    i32 2, label %32
  ]

30:                                               ; preds = %.lr.ph
  %31 = call i32 (ptr, ptr, ...) @luaL_error(ptr noundef %0, ptr noundef nonnull @.str.10) #10
  br label %50

32:                                               ; preds = %.lr.ph
  %33 = call i32 (ptr, ptr, ...) @luaL_error(ptr noundef %0, ptr noundef nonnull @.str.11) #10
  br label %50

34:                                               ; preds = %.lr.ph
  %indvars.iv.next = add nuw nsw i64 %indvars.iv, 1
  %35 = load i64, ptr %24, align 8, !tbaa !20
  %36 = icmp ne i64 %35, 0
  %37 = icmp sgt i64 %spec.select, %indvars.iv.next
  %38 = select i1 %36, i1 %37, i1 false
  br i1 %38, label %.lr.ph, label %._crit_edge.loopexit, !llvm.loop !34

._crit_edge.loopexit:                             ; preds = %34
  %39 = trunc nuw i64 %indvars.iv.next to i32
  br label %._crit_edge

._crit_edge:                                      ; preds = %._crit_edge.loopexit, %21
  %.030.lcssa = phi i32 [ 0, %21 ], [ %39, %._crit_edge.loopexit ]
  %.lcssa = phi i64 [ %23, %21 ], [ %35, %._crit_edge.loopexit ]
  br i1 %7, label %50, label %40

40:                                               ; preds = %._crit_edge
  %41 = load i64, ptr %4, align 8, !tbaa !22
  %42 = sub i64 %41, %.lcssa
  %43 = icmp slt i64 %42, 0
  br i1 %43, label %44, label %45

44:                                               ; preds = %40
  call void @abort() #11
  unreachable

45:                                               ; preds = %40
  call void @luaL_checkstack(ptr noundef %0, i32 noundef 1, ptr noundef nonnull @.str.12) #10
  %46 = load i64, ptr %24, align 8, !tbaa !20
  %47 = icmp eq i64 %46, 0
  %48 = select i1 %47, i64 -1, i64 %42
  call void @lua_pushinteger(ptr noundef %0, i64 noundef %48) #10
  call void @lua_insert(ptr noundef %0, i32 noundef 2) #10
  %49 = add nuw nsw i32 %.030.lcssa, 1
  br label %50

50:                                               ; preds = %._crit_edge, %45, %32, %30, %17, %9
  %.0 = phi i32 [ %13, %9 ], [ %20, %17 ], [ %31, %30 ], [ %33, %32 ], [ %.030.lcssa, %._crit_edge ], [ %49, %45 ]
  call void @llvm.lifetime.end.p0(i64 24, ptr nonnull %5) #10
  call void @llvm.lifetime.end.p0(i64 8, ptr nonnull %4) #10
  ret i32 %.0
}